; Function Attrs: mustprogress nounwind uwtable
define void @_ZN4pkpy4DictD2Ev(ptr nocapture noundef nonnull readonly align 8 dereferenceable(48) %0) unnamed_addr #3 align 2 {
  %2 = getelementptr inbounds i8, ptr %0, i64 32
  %3 = load ptr, ptr %2, align 8
  %4 = icmp eq ptr %3, null
  br i1 %4, label %8, label %5

5:                                                ; preds = %1
  tail call void @_ZN4pkpy15pool128_deallocEPv(ptr noundef nonnull %3) #16
  %6 = getelementptr inbounds i8, ptr %0, i64 40
  %7 = load ptr, ptr %6, align 8
  tail call void @_ZN4pkpy14pool64_deallocEPv(ptr noundef %7) #16
  br label %8

8:                                                ; preds = %1, %5
  ret void
}